; Function Attrs: mustprogress uwtable
define hidden noundef ptr @_Z13pyopencv_fromIN2cv7Scalar_IdEEEP7_objectRKT_(ptr nocapture noundef nonnull readonly align 8 dereferenceable(32) %0) local_unnamed_addr #3 {
  %2 = load double, ptr %0, align 8
  %3 = getelementptr inbounds i8, ptr %0, i64 8
  %4 = load double, ptr %3, align 8
  %5 = getelementptr inbounds i8, ptr %0, i64 16
  %6 = load double, ptr %5, align 8
  %7 = getelementptr inbounds i8, ptr %0, i64 24
  %8 = load double, ptr %7, align 8
  %9 = tail call ptr (ptr, ...) @Py_BuildValue(ptr noundef nonnull @.str.14, double noundef %2, double noundef %4, double noundef %6, double noundef %8)
  ret ptr %9
}